target datalayout = "e-m:e-p270:32:32-p271:32:32-p272:64:64-i64:64-i128:128-f80:128-n8:16:32:64-S128"
target triple = "x86_64-pc-linux-gnu"

%struct.black_TWorker_ = type { i32, i32, i32, i32, i32, ptr, ptr, ptr, ptr, i32, i8, i64, i64, i64, i64, i16, i32, ptr, ptr, ptr, i32, %struct.FT_Outline_, i32, i32, i32, ptr, ptr, ptr, ptr, ptr, ptr }
%struct.FT_Outline_ = type { i16, i16, ptr, ptr, ptr, i32 }

; Function Attrs: nounwind uwtable
define internal void @Horizontal_Sweep_Span(ptr noundef %0, i32 noundef %1, i64 noundef %2, i64 noundef %3) #0 {
  %5 = alloca ptr, align 8
  %6 = alloca i32, align 4
  %7 = alloca i64, align 8
  %8 = alloca i64, align 8
  %9 = alloca i64, align 8
  %10 = alloca i64, align 8
  %11 = alloca i32, align 4
  %12 = alloca ptr, align 8
  %13 = alloca i32, align 4
  %14 = alloca ptr, align 8
  store ptr %0, ptr %5, align 8, !tbaa !105
  store i32 %1, ptr %6, align 4, !tbaa !15
  store i64 %2, ptr %7, align 8, !tbaa !23
  store i64 %3, ptr %8, align 8, !tbaa !23
  call void @llvm.lifetime.start.p0(i64 8, ptr %9) #5
  %15 = load i64, ptr %7, align 8, !tbaa !23
  %16 = load ptr, ptr %5, align 8, !tbaa !105
  %17 = getelementptr inbounds nuw %struct.black_TWorker_, ptr %16, i32 0, i32 1
  %18 = load i32, ptr %17, align 4, !tbaa !117
  %19 = sext i32 %18 to i64
  %20 = add nsw i64 %15, %19
  %21 = sub nsw i64 %20, 1
  %22 = load ptr, ptr %5, align 8, !tbaa !105
  %23 = getelementptr inbounds nuw %struct.black_TWorker_, ptr %22, i32 0, i32 1
  %24 = load i32, ptr %23, align 4, !tbaa !117
  %25 = sub nsw i32 0, %24
  %26 = sext i32 %25 to i64
  %27 = and i64 %21, %26
  store i64 %27, ptr %9, align 8, !tbaa !23
  call void @llvm.lifetime.start.p0(i64 8, ptr %10) #5
  %28 = load i64, ptr %8, align 8, !tbaa !23
  %29 = load ptr, ptr %5, align 8, !tbaa !105
  %30 = getelementptr inbounds nuw %struct.black_TWorker_, ptr %29, i32 0, i32 1
  %31 = load i32, ptr %30, align 4, !tbaa !117
  %32 = sub nsw i32 0, %31
  %33 = sext i32 %32 to i64
  %34 = and i64 %28, %33
  store i64 %34, ptr %10, align 8, !tbaa !23
  br label %35

35:                                               ; preds = %4
  br label %36

36:                                               ; preds = %35
  br label %37

37:                                               ; preds = %36
  %38 = load i64, ptr %7, align 8, !tbaa !23
  %39 = load i64, ptr %9, align 8, !tbaa !23
  %40 = icmp eq i64 %38, %39
  br i1 %40, label %41, label %87

41:                                               ; preds = %37
  %42 = load i64, ptr %9, align 8, !tbaa !23
  %43 = load ptr, ptr %5, align 8, !tbaa !105
  %44 = getelementptr inbounds nuw %struct.black_TWorker_, ptr %43, i32 0, i32 0
  %45 = load i32, ptr %44, align 8, !tbaa !115
  %46 = zext i32 %45 to i64
  %47 = ashr i64 %42, %46
  store i64 %47, ptr %9, align 8, !tbaa !23
  %48 = load i64, ptr %9, align 8, !tbaa !23
  %49 = icmp sge i64 %48, 0
  br i1 %49, label %50, label %86

50:                                               ; preds = %41
  %51 = load i64, ptr %9, align 8, !tbaa !23
  %52 = load ptr, ptr %5, align 8, !tbaa !105
  %53 = getelementptr inbounds nuw %struct.black_TWorker_, ptr %52, i32 0, i32 22
  %54 = load i32, ptr %53, align 8, !tbaa !52
  %55 = sext i32 %54 to i64
  %56 = icmp sle i64 %51, %55
  br i1 %56, label %57, label %86

57:                                               ; preds = %50
  call void @llvm.lifetime.start.p0(i64 4, ptr %11) #5
  call void @llvm.lifetime.start.p0(i64 8, ptr %12) #5
  %58 = load ptr, ptr %5, align 8, !tbaa !105
  %59 = getelementptr inbounds nuw %struct.black_TWorker_, ptr %58, i32 0, i32 25
  %60 = load ptr, ptr %59, align 8, !tbaa !59
  %61 = load i32, ptr %6, align 4, !tbaa !15
  %62 = ashr i32 %61, 3
  %63 = sext i32 %62 to i64
  %64 = getelementptr inbounds i8, ptr %60, i64 %63
  %65 = load i64, ptr %9, align 8, !tbaa !23
  %66 = load ptr, ptr %5, align 8, !tbaa !105
  %67 = getelementptr inbounds nuw %struct.black_TWorker_, ptr %66, i32 0, i32 24
  %68 = load i32, ptr %67, align 8, !tbaa !58
  %69 = sext i32 %68 to i64
  %70 = mul nsw i64 %65, %69
  %71 = sub i64 0, %70
  %72 = getelementptr inbounds i8, ptr %64, i64 %71
  store ptr %72, ptr %12, align 8, !tbaa !21
  %73 = load i32, ptr %6, align 4, !tbaa !15
  %74 = and i32 %73, 7
  %75 = ashr i32 128, %74
  store i32 %75, ptr %11, align 4, !tbaa !15
  br label %76

76:                                               ; preds = %57
  br label %77

77:                                               ; preds = %76
  br label %78

78:                                               ; preds = %77
  %79 = load i32, ptr %11, align 4, !tbaa !15
  %80 = load ptr, ptr %12, align 8, !tbaa !21
  %81 = getelementptr inbounds i8, ptr %80, i64 0
  %82 = load i8, ptr %81, align 1, !tbaa !121
  %83 = zext i8 %82 to i32
  %84 = or i32 %83, %79
  %85 = trunc i32 %84 to i8
  store i8 %85, ptr %81, align 1, !tbaa !121
  call void @llvm.lifetime.end.p0(i64 8, ptr %12) #5
  call void @llvm.lifetime.end.p0(i64 4, ptr %11) #5
  br label %86

86:                                               ; preds = %78, %50, %41
  br label %87

87:                                               ; preds = %86, %37
  %88 = load i64, ptr %8, align 8, !tbaa !23
  %89 = load i64, ptr %10, align 8, !tbaa !23
  %90 = icmp eq i64 %88, %89
  br i1 %90, label %91, label %137

91:                                               ; preds = %87
  %92 = load i64, ptr %10, align 8, !tbaa !23
  %93 = load ptr, ptr %5, align 8, !tbaa !105
  %94 = getelementptr inbounds nuw %struct.black_TWorker_, ptr %93, i32 0, i32 0
  %95 = load i32, ptr %94, align 8, !tbaa !115
  %96 = zext i32 %95 to i64
  %97 = ashr i64 %92, %96
  store i64 %97, ptr %10, align 8, !tbaa !23
  %98 = load i64, ptr %10, align 8, !tbaa !23
  %99 = icmp sge i64 %98, 0
  br i1 %99, label %100, label %136

100:                                              ; preds = %91
  %101 = load i64, ptr %10, align 8, !tbaa !23
  %102 = load ptr, ptr %5, align 8, !tbaa !105
  %103 = getelementptr inbounds nuw %struct.black_TWorker_, ptr %102, i32 0, i32 22
  %104 = load i32, ptr %103, align 8, !tbaa !52
  %105 = sext i32 %104 to i64
  %106 = icmp sle i64 %101, %105
  br i1 %106, label %107, label %136

107:                                              ; preds = %100
  call void @llvm.lifetime.start.p0(i64 4, ptr %13) #5
  call void @llvm.lifetime.start.p0(i64 8, ptr %14) #5
  %108 = load ptr, ptr %5, align 8, !tbaa !105
  %109 = getelementptr inbounds nuw %struct.black_TWorker_, ptr %108, i32 0, i32 25
  %110 = load ptr, ptr %109, align 8, !tbaa !59
  %111 = load i32, ptr %6, align 4, !tbaa !15
  %112 = ashr i32 %111, 3
  %113 = sext i32 %112 to i64
  %114 = getelementptr inbounds i8, ptr %110, i64 %113
  %115 = load i64, ptr %10, align 8, !tbaa !23
  %116 = load ptr, ptr %5, align 8, !tbaa !105
  %117 = getelementptr inbounds nuw %struct.black_TWorker_, ptr %116, i32 0, i32 24
  %118 = load i32, ptr %117, align 8, !tbaa !58
  %119 = sext i32 %118 to i64
  %120 = mul nsw i64 %115, %119
  %121 = sub i64 0, %120
  %122 = getelementptr inbounds i8, ptr %114, i64 %121
  store ptr %122, ptr %14, align 8, !tbaa !21
  %123 = load i32, ptr %6, align 4, !tbaa !15
  %124 = and i32 %123, 7
  %125 = ashr i32 128, %124
  store i32 %125, ptr %13, align 4, !tbaa !15
  br label %126

126:                                              ; preds = %107
  br label %127

127:                                              ; preds = %126
  br label %128

128:                                              ; preds = %127
  %129 = load i32, ptr %13, align 4, !tbaa !15
  %130 = load ptr, ptr %14, align 8, !tbaa !21
  %131 = getelementptr inbounds i8, ptr %130, i64 0
  %132 = load i8, ptr %131, align 1, !tbaa !121
  %133 = zext i8 %132 to i32
  %134 = or i32 %133, %129
  %135 = trunc i32 %134 to i8
  store i8 %135, ptr %131, align 1, !tbaa !121
  call void @llvm.lifetime.end.p0(i64 8, ptr %14) #5
  call void @llvm.lifetime.end.p0(i64 4, ptr %13) #5
  br label %136

136:                                              ; preds = %128, %100, %91
  br label %137

137:                                              ; preds = %136, %87
  br label %138

138:                                              ; preds = %137
  br label %139

139:                                              ; preds = %138
  br label %140

140:                                              ; preds = %139
  call void @llvm.lifetime.end.p0(i64 8, ptr %10) #5
  call void @llvm.lifetime.end.p0(i64 8, ptr %9) #5
  ret void
}