; Function Attrs: mustprogress nofree norecurse nosync nounwind willreturn memory(readwrite, inaccessiblemem: none) uwtable
define internal void @Horizontal_Sweep_Span(ptr noundef readonly captures(none) %0, i32 noundef %1, i64 noundef %2, i64 noundef %3) #6 {
  %5 = getelementptr inbounds nuw i8, ptr %0, i64 4
  %6 = load i32, ptr %5, align 4, !tbaa !88
  %7 = sext i32 %6 to i64
  %8 = add i64 %2, -1
  %9 = add i64 %8, %7
  %10 = sub nsw i32 0, %6
  %11 = sext i32 %10 to i64
  %12 = and i64 %9, %11
  %13 = and i64 %3, %11
  %14 = icmp eq i64 %2, %12
  br i1 %14, label %15, label %41

15:                                               ; preds = %4
  %16 = load i32, ptr %0, align 8, !tbaa !86
  %17 = zext nneg i32 %16 to i64
  %18 = ashr i64 %2, %17
  %19 = icmp sgt i64 %18, -1
  br i1 %19, label %20, label %41

20:                                               ; preds = %15
  %21 = getelementptr inbounds nuw i8, ptr %0, i64 176
  %22 = load i32, ptr %21, align 8, !tbaa !37
  %23 = sext i32 %22 to i64
  %.not = icmp sgt i64 %18, %23
  br i1 %.not, label %41, label %24

24:                                               ; preds = %20
  %25 = getelementptr inbounds nuw i8, ptr %0, i64 192
  %26 = load ptr, ptr %25, align 8, !tbaa !44
  %27 = ashr i32 %1, 3
  %28 = sext i32 %27 to i64
  %29 = getelementptr inbounds i8, ptr %26, i64 %28
  %30 = getelementptr inbounds nuw i8, ptr %0, i64 184
  %31 = load i32, ptr %30, align 8, !tbaa !43
  %32 = sext i32 %31 to i64
  %33 = mul nsw i64 %18, %32
  %34 = sub nsw i64 0, %33
  %35 = getelementptr inbounds i8, ptr %29, i64 %34
  %36 = and i32 %1, 7
  %37 = lshr exact i32 128, %36
  %38 = load i8, ptr %35, align 1, !tbaa !96
  %39 = trunc nuw i32 %37 to i8
  %40 = or i8 %38, %39
  store i8 %40, ptr %35, align 1, !tbaa !96
  br label %41

41:                                               ; preds = %15, %20, %24, %4
  %42 = icmp eq i64 %3, %13
  br i1 %42, label %43, label %69

43:                                               ; preds = %41
  %44 = load i32, ptr %0, align 8, !tbaa !86
  %45 = zext nneg i32 %44 to i64
  %46 = ashr i64 %3, %45
  %47 = icmp sgt i64 %46, -1
  br i1 %47, label %48, label %69

48:                                               ; preds = %43
  %49 = getelementptr inbounds nuw i8, ptr %0, i64 176
  %50 = load i32, ptr %49, align 8, !tbaa !37
  %51 = sext i32 %50 to i64
  %.not35 = icmp sgt i64 %46, %51
  br i1 %.not35, label %69, label %52

52:                                               ; preds = %48
  %53 = getelementptr inbounds nuw i8, ptr %0, i64 192
  %54 = load ptr, ptr %53, align 8, !tbaa !44
  %55 = ashr i32 %1, 3
  %56 = sext i32 %55 to i64
  %57 = getelementptr inbounds i8, ptr %54, i64 %56
  %58 = getelementptr inbounds nuw i8, ptr %0, i64 184
  %59 = load i32, ptr %58, align 8, !tbaa !43
  %60 = sext i32 %59 to i64
  %61 = mul nsw i64 %46, %60
  %62 = sub nsw i64 0, %61
  %63 = getelementptr inbounds i8, ptr %57, i64 %62
  %64 = and i32 %1, 7
  %65 = lshr exact i32 128, %64
  %66 = load i8, ptr %63, align 1, !tbaa !96
  %67 = trunc nuw i32 %65 to i8
  %68 = or i8 %66, %67
  store i8 %68, ptr %63, align 1, !tbaa !96
  br label %69

69:                                               ; preds = %41, %52, %48, %43
  ret void
}